target datalayout = "e-m:e-p270:32:32-p271:32:32-p272:64:64-i64:64-i128:128-f80:128-n8:16:32:64-S128"
target triple = "x86_64-pc-linux-gnu"

%struct.quic_txpim_pkt_ex_st = type { %struct.quic_txpim_pkt_st, ptr, ptr, ptr, i64, i64, i8 }
%struct.quic_txpim_pkt_st = type { %struct.ossl_ackm_tx_pkt_st, ptr, ptr, i8, i8 }
%struct.ossl_ackm_tx_pkt_st = type { i64, i64, %struct.OSSL_TIME, i64, i8, ptr, ptr, ptr, ptr, %struct.anon, ptr, ptr }
%struct.OSSL_TIME = type { i64 }
%struct.anon = type { ptr, ptr }

; Function Attrs: nounwind uwtable
define ptr @ossl_quic_txpim_pkt_get_chunks(ptr noundef %0) #0 {
  %2 = alloca ptr, align 8
  %3 = alloca ptr, align 8
  store ptr %0, ptr %2, align 8, !tbaa !36
  call void @llvm.lifetime.start.p0(i64 8, ptr %3) #5
  %4 = load ptr, ptr %2, align 8, !tbaa !36
  store ptr %4, ptr %3, align 8, !tbaa !13
  %5 = load ptr, ptr %3, align 8, !tbaa !13
  %6 = getelementptr inbounds nuw %struct.quic_txpim_pkt_ex_st, ptr %5, i32 0, i32 6
  %7 = load i8, ptr %6, align 8
  %8 = and i8 %7, 1
  %9 = zext i8 %8 to i32
  %10 = icmp ne i32 %9, 0
  br i1 %10, label %11, label %23

11:                                               ; preds = %1
  %12 = load ptr, ptr %3, align 8, !tbaa !13
  %13 = getelementptr inbounds nuw %struct.quic_txpim_pkt_ex_st, ptr %12, i32 0, i32 3
  %14 = load ptr, ptr %13, align 8, !tbaa !26
  %15 = load ptr, ptr %3, align 8, !tbaa !13
  %16 = getelementptr inbounds nuw %struct.quic_txpim_pkt_ex_st, ptr %15, i32 0, i32 4
  %17 = load i64, ptr %16, align 8, !tbaa !43
  call void @qsort(ptr noundef %14, i64 noundef %17, i64 noundef 32, ptr noundef @compare)
  %18 = load ptr, ptr %3, align 8, !tbaa !13
  %19 = getelementptr inbounds nuw %struct.quic_txpim_pkt_ex_st, ptr %18, i32 0, i32 6
  %20 = load i8, ptr %19, align 8
  %21 = and i8 %20, -2
  %22 = or i8 %21, 0
  store i8 %22, ptr %19, align 8
  br label %23

23:                                               ; preds = %11, %1
  %24 = load ptr, ptr %3, align 8, !tbaa !13
  %25 = getelementptr inbounds nuw %struct.quic_txpim_pkt_ex_st, ptr %24, i32 0, i32 3
  %26 = load ptr, ptr %25, align 8, !tbaa !26
  call void @llvm.lifetime.end.p0(i64 8, ptr %3) #5
  ret ptr %26
}