; Function Attrs: nofree nounwind uwtable
define ptr @ossl_quic_txpim_pkt_get_chunks(ptr noundef captures(none) %0) local_unnamed_addr #6 {
  %2 = getelementptr inbounds nuw i8, ptr %0, i64 168
  %3 = load i8, ptr %2, align 8
  %4 = and i8 %3, 1
  %.not = icmp eq i8 %4, 0
  br i1 %.not, label %12, label %5

5:                                                ; preds = %1
  %6 = getelementptr inbounds nuw i8, ptr %0, i64 144
  %7 = load ptr, ptr %6, align 8, !tbaa !21
  %8 = getelementptr inbounds nuw i8, ptr %0, i64 152
  %9 = load i64, ptr %8, align 8, !tbaa !28
  tail call void @qsort(ptr noundef %7, i64 noundef %9, i64 noundef 32, ptr noundef nonnull @compare) #11
  %10 = load i8, ptr %2, align 8
  %11 = and i8 %10, -2
  store i8 %11, ptr %2, align 8
  br label %12

12:                                               ; preds = %5, %1
  %13 = getelementptr inbounds nuw i8, ptr %0, i64 144
  %14 = load ptr, ptr %13, align 8, !tbaa !21
  ret ptr %14
}